target datalayout = "e-m:e-p270:32:32-p271:32:32-p272:64:64-i64:64-i128:128-f80:128-n8:16:32:64-S128"
target triple = "x86_64-pc-linux-gnu"

%struct.ProfileState = type { ptr, ptr, ptr, %struct.SBuf, i32, i32, i32, %struct.sigaction }
%struct.SBuf = type { ptr, ptr, ptr, %struct.MRef }
%struct.MRef = type { i64 }
%struct.sigaction = type { %union.anon, %struct.__sigset_t, i32, ptr }
%union.anon = type { ptr }
%struct.__sigset_t = type { [16 x i64] }

@profile_state = internal global %struct.ProfileState zeroinitializer, align 8

; Function Attrs: alwaysinline nounwind uwtable
define internal void @lj_buf_reset(ptr noundef %0) #3 {
  %2 = alloca ptr, align 8
  store ptr %0, ptr %2, align 8, !tbaa !63
  %3 = load ptr, ptr %2, align 8, !tbaa !63
  %4 = getelementptr inbounds nuw %struct.SBuf, ptr %3, i32 0, i32 2
  %5 = load ptr, ptr %4, align 8, !tbaa !66
  %6 = load ptr, ptr %2, align 8, !tbaa !63
  %7 = getelementptr inbounds nuw %struct.SBuf, ptr %6, i32 0, i32 0
  store ptr %5, ptr %7, align 8, !tbaa !68
  ret void
}

; Function Attrs: nounwind uwtable
define dso_local ptr @luaJIT_profile_dumpstack(ptr noundef %0, ptr noundef %1, i32 noundef %2, ptr noundef %3) #0 {
  %5 = alloca ptr, align 8
  %6 = alloca ptr, align 8
  %7 = alloca i32, align 4
  %8 = alloca ptr, align 8
  %9 = alloca ptr, align 8
  %10 = alloca ptr, align 8
  store ptr %0, ptr %5, align 8, !tbaa !4
  store ptr %1, ptr %6, align 8, !tbaa !40
  store i32 %2, ptr %7, align 4, !tbaa !36
  store ptr %3, ptr %8, align 8, !tbaa !76
  call void @llvm.lifetime.start.p0(i64 8, ptr %9) #5
  store ptr @profile_state, ptr %9, align 8, !tbaa !9
  call void @llvm.lifetime.start.p0(i64 8, ptr %10) #5
  %11 = load ptr, ptr %9, align 8, !tbaa !9
  %12 = getelementptr inbounds nuw %struct.ProfileState, ptr %11, i32 0, i32 3
  store ptr %12, ptr %10, align 8, !tbaa !63
  %13 = load ptr, ptr %5, align 8, !tbaa !4
  %14 = ptrtoint ptr %13 to i64
  %15 = load ptr, ptr %10, align 8, !tbaa !63
  %16 = getelementptr inbounds nuw %struct.SBuf, ptr %15, i32 0, i32 3
  %17 = getelementptr inbounds nuw %struct.MRef, ptr %16, i32 0, i32 0
  store i64 %14, ptr %17, align 8, !tbaa !65
  %18 = load ptr, ptr %10, align 8, !tbaa !63
  call void @lj_buf_reset(ptr noundef %18)
  %19 = load ptr, ptr %5, align 8, !tbaa !4
  %20 = load ptr, ptr %10, align 8, !tbaa !63
  %21 = load ptr, ptr %6, align 8, !tbaa !40
  %22 = load i32, ptr %7, align 4, !tbaa !36
  call void @lj_debug_dumpstack(ptr noundef %19, ptr noundef %20, ptr noundef %21, i32 noundef %22)
  %23 = load ptr, ptr %10, align 8, !tbaa !63
  %24 = getelementptr inbounds nuw %struct.SBuf, ptr %23, i32 0, i32 0
  %25 = load ptr, ptr %24, align 8, !tbaa !68
  %26 = load ptr, ptr %10, align 8, !tbaa !63
  %27 = getelementptr inbounds nuw %struct.SBuf, ptr %26, i32 0, i32 2
  %28 = load ptr, ptr %27, align 8, !tbaa !66
  %29 = ptrtoint ptr %25 to i64
  %30 = ptrtoint ptr %28 to i64
  %31 = sub i64 %29, %30
  %32 = trunc i64 %31 to i32
  %33 = zext i32 %32 to i64
  %34 = load ptr, ptr %8, align 8, !tbaa !76
  store i64 %33, ptr %34, align 8, !tbaa !78
  %35 = load ptr, ptr %10, align 8, !tbaa !63
  %36 = getelementptr inbounds nuw %struct.SBuf, ptr %35, i32 0, i32 2
  %37 = load ptr, ptr %36, align 8, !tbaa !66
  call void @llvm.lifetime.end.p0(i64 8, ptr %10) #5
  call void @llvm.lifetime.end.p0(i64 8, ptr %9) #5
  ret ptr %37
}