; Function Attrs: nounwind uwtable
define dso_local ptr @luaJIT_profile_dumpstack(ptr noundef %0, ptr noundef %1, i32 noundef %2, ptr noundef writeonly captures(none) initializes((0, 8)) %3) local_unnamed_addr #0 {
  %5 = ptrtoint ptr %0 to i64
  store i64 %5, ptr getelementptr inbounds nuw (i8, ptr @profile_state, i64 48), align 8, !tbaa !54
  %6 = load ptr, ptr getelementptr inbounds nuw (i8, ptr @profile_state, i64 40), align 8, !tbaa !62
  store ptr %6, ptr getelementptr inbounds nuw (i8, ptr @profile_state, i64 24), align 8, !tbaa !67
  tail call void @lj_debug_dumpstack(ptr noundef %0, ptr noundef nonnull getelementptr inbounds nuw (i8, ptr @profile_state, i64 24), ptr noundef %1, i32 noundef %2) #7
  %7 = load ptr, ptr getelementptr inbounds nuw (i8, ptr @profile_state, i64 24), align 8, !tbaa !67
  %8 = load ptr, ptr getelementptr inbounds nuw (i8, ptr @profile_state, i64 40), align 8, !tbaa !62
  %9 = ptrtoint ptr %7 to i64
  %10 = ptrtoint ptr %8 to i64
  %11 = sub i64 %9, %10
  %12 = and i64 %11, 4294967295
  store i64 %12, ptr %3, align 8, !tbaa !68
  ret ptr %8
}